target datalayout = "e-m:e-p270:32:32-p271:32:32-p272:64:64-i64:64-i128:128-f80:128-n8:16:32:64-S128"
target triple = "x86_64-pc-linux-gnu"

@H5T_STD_REF_g = external global i64, align 8
@H5T_STD_REF_DSETREG_g = external global i64, align 8
@.str.216 = private unnamed_addr constant [19 x i8] c"standard reference\00", align 1
@H5T_STD_REF_OBJ_g = external global i64, align 8
@.str.217 = private unnamed_addr constant [17 x i8] c"object reference\00", align 1
@.str.218 = private unnamed_addr constant [25 x i8] c"dataset region reference\00", align 1
@.str.219 = private unnamed_addr constant [27 x i8] c"%lu-byte unknown reference\00", align 1

; Function Attrs: nounwind uwtable
define internal zeroext i1 @print_reference_type(ptr noundef %0, i64 noundef %1, i32 noundef %2) #0 {
  %4 = alloca i1, align 1
  %5 = alloca ptr, align 8
  %6 = alloca i64, align 8
  %7 = alloca i32, align 4
  store ptr %0, ptr %5, align 8, !tbaa !81
  store i64 %1, ptr %6, align 8, !tbaa !11
  store i32 %2, ptr %7, align 4, !tbaa !4
  %8 = load i64, ptr %6, align 8, !tbaa !11
  %9 = call i32 @H5Tget_class(i64 noundef %8)
  %10 = icmp ne i32 7, %9
  br i1 %10, label %11, label %12

11:                                               ; preds = %3
  store i1 false, ptr %4, align 1
  br label %44

12:                                               ; preds = %3
  %13 = load i64, ptr %6, align 8, !tbaa !11
  %14 = load i64, ptr @H5T_STD_REF_g, align 8, !tbaa !11
  %15 = call i32 @H5Tequal(i64 noundef %13, i64 noundef %14)
  %16 = icmp eq i32 %15, 1
  br i1 %16, label %17, label %20

17:                                               ; preds = %12
  %18 = load ptr, ptr %5, align 8, !tbaa !81
  %19 = call ptr (ptr, ptr, ...) @h5tools_str_append(ptr noundef %18, ptr noundef @.str.216)
  br label %43

20:                                               ; preds = %12
  %21 = load i64, ptr %6, align 8, !tbaa !11
  %22 = load i64, ptr @H5T_STD_REF_OBJ_g, align 8, !tbaa !11
  %23 = call i32 @H5Tequal(i64 noundef %21, i64 noundef %22)
  %24 = icmp eq i32 %23, 1
  br i1 %24, label %25, label %28

25:                                               ; preds = %20
  %26 = load ptr, ptr %5, align 8, !tbaa !81
  %27 = call ptr (ptr, ptr, ...) @h5tools_str_append(ptr noundef %26, ptr noundef @.str.217)
  br label %42

28:                                               ; preds = %20
  %29 = load i64, ptr %6, align 8, !tbaa !11
  %30 = load i64, ptr @H5T_STD_REF_DSETREG_g, align 8, !tbaa !11
  %31 = call i32 @H5Tequal(i64 noundef %29, i64 noundef %30)
  %32 = icmp eq i32 %31, 1
  br i1 %32, label %33, label %36

33:                                               ; preds = %28
  %34 = load ptr, ptr %5, align 8, !tbaa !81
  %35 = call ptr (ptr, ptr, ...) @h5tools_str_append(ptr noundef %34, ptr noundef @.str.218)
  br label %41

36:                                               ; preds = %28
  %37 = load ptr, ptr %5, align 8, !tbaa !81
  %38 = load i64, ptr %6, align 8, !tbaa !11
  %39 = call i64 @H5Tget_size(i64 noundef %38)
  %40 = call ptr (ptr, ptr, ...) @h5tools_str_append(ptr noundef %37, ptr noundef @.str.219, i64 noundef %39)
  br label %41

41:                                               ; preds = %36, %33
  br label %42

42:                                               ; preds = %41, %25
  br label %43

43:                                               ; preds = %42, %17
  store i1 true, ptr %4, align 1
  br label %44

44:                                               ; preds = %43, %11
  %45 = load i1, ptr %4, align 1
  ret i1 %45
}