; Function Attrs: nounwind uwtable
define internal fastcc noundef zeroext i1 @print_reference_type(ptr noundef nonnull %0, i64 noundef range(i64 0, -9223372036854775808) %1) unnamed_addr #4 {
  %3 = tail call i32 @H5Tget_class(i64 noundef %1) #20
  %.not = icmp eq i32 %3, 7
  br i1 %.not, label %4, label %25

4:                                                ; preds = %2
  %5 = load i64, ptr @H5T_STD_REF_g, align 8, !tbaa !44
  %6 = tail call i32 @H5Tequal(i64 noundef %1, i64 noundef %5) #20
  %7 = icmp eq i32 %6, 1
  br i1 %7, label %8, label %10

8:                                                ; preds = %4
  %9 = tail call ptr (ptr, ptr, ...) @h5tools_str_append(ptr noundef nonnull %0, ptr noundef nonnull @.str.216) #20
  br label %25

10:                                               ; preds = %4
  %11 = load i64, ptr @H5T_STD_REF_OBJ_g, align 8, !tbaa !44
  %12 = tail call i32 @H5Tequal(i64 noundef %1, i64 noundef %11) #20
  %13 = icmp eq i32 %12, 1
  br i1 %13, label %14, label %16

14:                                               ; preds = %10
  %15 = tail call ptr (ptr, ptr, ...) @h5tools_str_append(ptr noundef nonnull %0, ptr noundef nonnull @.str.217) #20
  br label %25

16:                                               ; preds = %10
  %17 = load i64, ptr @H5T_STD_REF_DSETREG_g, align 8, !tbaa !44
  %18 = tail call i32 @H5Tequal(i64 noundef %1, i64 noundef %17) #20
  %19 = icmp eq i32 %18, 1
  br i1 %19, label %20, label %22

20:                                               ; preds = %16
  %21 = tail call ptr (ptr, ptr, ...) @h5tools_str_append(ptr noundef nonnull %0, ptr noundef nonnull @.str.218) #20
  br label %25

22:                                               ; preds = %16
  %23 = tail call i64 @H5Tget_size(i64 noundef %1) #20
  %24 = tail call ptr (ptr, ptr, ...) @h5tools_str_append(ptr noundef nonnull %0, ptr noundef nonnull @.str.219, i64 noundef %23) #20
  br label %25

25:                                               ; preds = %8, %20, %22, %14, %2
  ret i1 %.not
}